target datalayout = "e-m:e-p270:32:32-p271:32:32-p272:64:64-i64:64-i128:128-f80:128-n8:16:32:64-S128"
target triple = "x86_64-unknown-linux-gnu"

%"class.net::QuicSentPacketManager" = type { %"class.net::QuicSentPacketManagerInterface", %"class.net::QuicUnackedPacketMap", %class.linked_hash_map, i32, i8, ptr, ptr, ptr, ptr, ptr, i64, %"class.net::RttStats", %"class.std::unique_ptr", ptr, %"class.net::GeneralLossAlgorithm", i8, i64, i64, i64, i64, i64, i64, i64, i64, i8, i8, i8, i8, %"class.std::vector", %"class.std::vector", i64, i16, [6 x i8], %"class.net::PacingSender", i8, %"class.net::QuicSustainedBandwidthRecorder" }
%"class.net::QuicSentPacketManagerInterface" = type { ptr }
%"class.net::QuicUnackedPacketMap" = type { i64, i64, %"class.std::deque", i64, i64, i64 }
%"class.std::deque" = type { %"class.std::_Deque_base" }
%"class.std::_Deque_base" = type { %"struct.std::_Deque_base<net::TransmissionInfo, std::allocator<net::TransmissionInfo>>::_Deque_impl" }
%"struct.std::_Deque_base<net::TransmissionInfo, std::allocator<net::TransmissionInfo>>::_Deque_impl" = type { %"struct.std::_Deque_base<net::TransmissionInfo, std::allocator<net::TransmissionInfo>>::_Deque_impl_data" }
%"struct.std::_Deque_base<net::TransmissionInfo, std::allocator<net::TransmissionInfo>>::_Deque_impl_data" = type { ptr, i64, %"struct.std::_Deque_iterator", %"struct.std::_Deque_iterator" }
%"struct.std::_Deque_iterator" = type { ptr, ptr, ptr, ptr }
%class.linked_hash_map = type { %"class.std::unordered_map", %"class.std::__cxx11::list" }
%"class.std::unordered_map" = type { %"class.std::_Hashtable" }
%"class.std::_Hashtable" = type { ptr, i64, %"struct.std::__detail::_Hash_node_base", i64, %"struct.std::__detail::_Prime_rehash_policy", ptr }
%"struct.std::__detail::_Hash_node_base" = type { ptr }
%"struct.std::__detail::_Prime_rehash_policy" = type { float, i64 }
%"class.std::__cxx11::list" = type { %"class.std::__cxx11::_List_base" }
%"class.std::__cxx11::_List_base" = type { %"struct.std::__cxx11::_List_base<std::pair<unsigned long, net::TransmissionType>, std::allocator<std::pair<unsigned long, net::TransmissionType>>>::_List_impl" }
%"struct.std::__cxx11::_List_base<std::pair<unsigned long, net::TransmissionType>, std::allocator<std::pair<unsigned long, net::TransmissionType>>>::_List_impl" = type { %"struct.std::__detail::_List_node_header" }
%"struct.std::__detail::_List_node_header" = type { %"struct.std::__detail::_List_node_base", i64 }
%"struct.std::__detail::_List_node_base" = type { ptr, ptr }
%"class.net::RttStats" = type { %"class.net::QuicTime::Delta", %"class.net::QuicTime::Delta", %"class.net::QuicTime::Delta", %"class.net::QuicTime::Delta", %"class.net::QuicTime::Delta", i64, %"class.net::QuicTime::Delta", %"class.net::QuicTime", i32, %"class.net::WindowedFilter" }
%"class.net::QuicTime::Delta" = type { %"class.base::TimeDelta", i64 }
%"class.base::TimeDelta" = type { i64 }
%"class.net::QuicTime" = type { i64 }
%"class.net::WindowedFilter" = type { %"class.net::QuicTime::Delta", %"class.net::QuicTime::Delta", [3 x %"struct.net::WindowedFilter<net::QuicTime::Delta, net::MinFilter<net::QuicTime::Delta>, net::QuicTime, net::QuicTime::Delta>::Sample"] }
%"struct.net::WindowedFilter<net::QuicTime::Delta, net::MinFilter<net::QuicTime::Delta>, net::QuicTime, net::QuicTime::Delta>::Sample" = type { %"class.net::QuicTime::Delta", %"class.net::QuicTime" }
%"class.std::unique_ptr" = type { %"struct.std::__uniq_ptr_data" }
%"struct.std::__uniq_ptr_data" = type { %"class.std::__uniq_ptr_impl" }
%"class.std::__uniq_ptr_impl" = type { %"class.std::tuple" }
%"class.std::tuple" = type { %"struct.std::_Tuple_impl" }
%"struct.std::_Tuple_impl" = type { %"struct.std::_Head_base.9" }
%"struct.std::_Head_base.9" = type { ptr }
%"class.net::GeneralLossAlgorithm" = type { %"class.net::LossDetectionInterface", %"class.net::QuicTime", i64, i32, i32 }
%"class.net::LossDetectionInterface" = type { ptr }
%"class.std::vector" = type { %"struct.std::_Vector_base" }
%"struct.std::_Vector_base" = type { %"struct.std::_Vector_base<std::pair<unsigned long, unsigned short>, std::allocator<std::pair<unsigned long, unsigned short>>>::_Vector_impl" }
%"struct.std::_Vector_base<std::pair<unsigned long, unsigned short>, std::allocator<std::pair<unsigned long, unsigned short>>>::_Vector_impl" = type { %"struct.std::_Vector_base<std::pair<unsigned long, unsigned short>, std::allocator<std::pair<unsigned long, unsigned short>>>::_Vector_impl_data" }
%"struct.std::_Vector_base<std::pair<unsigned long, unsigned short>, std::allocator<std::pair<unsigned long, unsigned short>>>::_Vector_impl_data" = type { ptr, ptr, ptr }
%"class.net::PacingSender" = type <{ ptr, %"class.net::QuicBandwidth", i32, [4 x i8], %"class.net::QuicTime", %"class.net::QuicTime", i8, [7 x i8] }>
%"class.net::QuicBandwidth" = type { i64 }
%"class.net::QuicSustainedBandwidthRecorder" = type { i8, i8, i8, %"class.net::QuicBandwidth", %"class.net::QuicBandwidth", i64, %"class.net::QuicTime" }

; Function Attrs: mustprogress nounwind uwtable
define linkonce_odr dso_local noundef zeroext i1 @_ZN3neteqENS_8QuicTimeES0_(i64 %lhs.coerce, i64 %rhs.coerce) #1 comdat {
entry:
  %lhs = alloca %"class.net::QuicTime", align 8
  %rhs = alloca %"class.net::QuicTime", align 8
  %coerce.dive = getelementptr inbounds %"class.net::QuicTime", ptr %lhs, i32 0, i32 0
  store i64 %lhs.coerce, ptr %coerce.dive, align 8
  %coerce.dive1 = getelementptr inbounds %"class.net::QuicTime", ptr %rhs, i32 0, i32 0
  store i64 %rhs.coerce, ptr %coerce.dive1, align 8
  %time_ = getelementptr inbounds %"class.net::QuicTime", ptr %lhs, i32 0, i32 0
  %0 = load i64, ptr %time_, align 8
  %time_2 = getelementptr inbounds %"class.net::QuicTime", ptr %rhs, i32 0, i32 0
  %1 = load i64, ptr %time_2, align 8
  %cmp = icmp eq i64 %0, %1
  ret i1 %cmp
}

; Function Attrs: mustprogress nounwind uwtable
define linkonce_odr dso_local void @_ZN3net8QuicTimeC2El(ptr noundef nonnull align 8 dereferenceable(8) %this, i64 noundef %time) unnamed_addr #1 comdat align 2 {
entry:
  %this.addr = alloca ptr, align 8
  %time.addr = alloca i64, align 8
  store ptr %this, ptr %this.addr, align 8
  store i64 %time, ptr %time.addr, align 8
  %this1 = load ptr, ptr %this.addr, align 8
  %time_ = getelementptr inbounds %"class.net::QuicTime", ptr %this1, i32 0, i32 0
  %0 = load i64, ptr %time.addr, align 8
  store i64 %0, ptr %time_, align 8
  ret void
}

; Function Attrs: mustprogress uwtable
define linkonce_odr dso_local noundef zeroext i1 @_ZN3netneENS_8QuicTimeES0_(i64 %lhs.coerce, i64 %rhs.coerce) #0 comdat {
entry:
  %lhs = alloca %"class.net::QuicTime", align 8
  %rhs = alloca %"class.net::QuicTime", align 8
  %agg.tmp = alloca %"class.net::QuicTime", align 8
  %agg.tmp2 = alloca %"class.net::QuicTime", align 8
  %coerce.dive = getelementptr inbounds %"class.net::QuicTime", ptr %lhs, i32 0, i32 0
  store i64 %lhs.coerce, ptr %coerce.dive, align 8
  %coerce.dive1 = getelementptr inbounds %"class.net::QuicTime", ptr %rhs, i32 0, i32 0
  store i64 %rhs.coerce, ptr %coerce.dive1, align 8
  call void @llvm.memcpy.p0.p0.i64(ptr align 8 %agg.tmp, ptr align 8 %lhs, i64 8, i1 false)
  call void @llvm.memcpy.p0.p0.i64(ptr align 8 %agg.tmp2, ptr align 8 %rhs, i64 8, i1 false)
  %coerce.dive3 = getelementptr inbounds %"class.net::QuicTime", ptr %agg.tmp, i32 0, i32 0
  %0 = load i64, ptr %coerce.dive3, align 8
  %coerce.dive4 = getelementptr inbounds %"class.net::QuicTime", ptr %agg.tmp2, i32 0, i32 0
  %1 = load i64, ptr %coerce.dive4, align 8
  %call = call noundef zeroext i1 @_ZN3neteqENS_8QuicTimeES0_(i64 %0, i64 %1)
  %lnot = xor i1 %call, true
  ret i1 %lnot
}

; Function Attrs: mustprogress uwtable
define linkonce_odr dso_local i64 @_ZN3net8QuicTime4ZeroEv() #0 comdat align 2 {
entry:
  %retval = alloca %"class.net::QuicTime", align 8
  call void @_ZN3net8QuicTimeC2El(ptr noundef nonnull align 8 dereferenceable(8) %retval, i64 noundef 0)
  %coerce.dive = getelementptr inbounds %"class.net::QuicTime", ptr %retval, i32 0, i32 0
  %0 = load i64, ptr %coerce.dive, align 8
  ret i64 %0
}

; Function Attrs: mustprogress uwtable
define dso_local noundef i32 @_ZNK3net21QuicSentPacketManager21GetRetransmissionModeEv(ptr noundef nonnull align 8 dereferenceable(776) %this) #0 align 2 {
entry:
  %retval = alloca i32, align 4
  %this.addr = alloca ptr, align 8
  %agg.tmp = alloca %"class.net::QuicTime", align 8
  %agg.tmp3 = alloca %"class.net::QuicTime", align 8
  store ptr %this, ptr %this.addr, align 8
  %this1 = load ptr, ptr %this.addr, align 8
  %handshake_confirmed_ = getelementptr inbounds %"class.net::QuicSentPacketManager", ptr %this1, i32 0, i32 34
  %0 = load i8, ptr %handshake_confirmed_, align 8
  %tobool = trunc i8 %0 to i1
  br i1 %tobool, label %if.end, label %land.lhs.true

land.lhs.true:                                    ; preds = %entry
  %unacked_packets_ = getelementptr inbounds %"class.net::QuicSentPacketManager", ptr %this1, i32 0, i32 1
  %call = call noundef zeroext i1 @_ZNK3net20QuicUnackedPacketMap23HasPendingCryptoPacketsEv(ptr noundef nonnull align 8 dereferenceable(120) %unacked_packets_)
  br i1 %call, label %if.then, label %if.end

if.then:                                          ; preds = %land.lhs.true
  store i32 2, ptr %retval, align 4
  br label %return

if.end:                                           ; preds = %land.lhs.true, %entry
  %loss_algorithm_ = getelementptr inbounds %"class.net::QuicSentPacketManager", ptr %this1, i32 0, i32 13
  %1 = load ptr, ptr %loss_algorithm_, align 8
  %vtable = load ptr, ptr %1, align 8
  %vfn = getelementptr inbounds ptr, ptr %vtable, i64 4
  %2 = load ptr, ptr %vfn, align 8
  %call2 = call i64 %2(ptr noundef nonnull align 8 dereferenceable(8) %1)
  %coerce.dive = getelementptr inbounds %"class.net::QuicTime", ptr %agg.tmp, i32 0, i32 0
  store i64 %call2, ptr %coerce.dive, align 8
  %call4 = call i64 @_ZN3net8QuicTime4ZeroEv()
  %coerce.dive5 = getelementptr inbounds %"class.net::QuicTime", ptr %agg.tmp3, i32 0, i32 0
  store i64 %call4, ptr %coerce.dive5, align 8
  %coerce.dive6 = getelementptr inbounds %"class.net::QuicTime", ptr %agg.tmp, i32 0, i32 0
  %3 = load i64, ptr %coerce.dive6, align 8
  %coerce.dive7 = getelementptr inbounds %"class.net::QuicTime", ptr %agg.tmp3, i32 0, i32 0
  %4 = load i64, ptr %coerce.dive7, align 8
  %call8 = call noundef zeroext i1 @_ZN3netneENS_8QuicTimeES0_(i64 %3, i64 %4)
  br i1 %call8, label %if.then9, label %if.end10

if.then9:                                         ; preds = %if.end
  store i32 3, ptr %retval, align 4
  br label %return

if.end10:                                         ; preds = %if.end
  %consecutive_tlp_count_ = getelementptr inbounds %"class.net::QuicSentPacketManager", ptr %this1, i32 0, i32 20
  %5 = load i64, ptr %consecutive_tlp_count_, align 8
  %max_tail_loss_probes_ = getelementptr inbounds %"class.net::QuicSentPacketManager", ptr %this1, i32 0, i32 23
  %6 = load i64, ptr %max_tail_loss_probes_, align 8
  %cmp = icmp ult i64 %5, %6
  br i1 %cmp, label %if.then11, label %if.end16

if.then11:                                        ; preds = %if.end10
  %unacked_packets_12 = getelementptr inbounds %"class.net::QuicSentPacketManager", ptr %this1, i32 0, i32 1
  %call13 = call noundef zeroext i1 @_ZNK3net20QuicUnackedPacketMap31HasUnackedRetransmittableFramesEv(ptr noundef nonnull align 8 dereferenceable(120) %unacked_packets_12)
  br i1 %call13, label %if.then14, label %if.end15

if.then14:                                        ; preds = %if.then11
  store i32 1, ptr %retval, align 4
  br label %return

if.end15:                                         ; preds = %if.then11
  br label %if.end16

if.end16:                                         ; preds = %if.end15, %if.end10
  store i32 0, ptr %retval, align 4
  br label %return

return:                                           ; preds = %if.end16, %if.then14, %if.then9, %if.then
  %7 = load i32, ptr %retval, align 4
  ret i32 %7
}