; Function Attrs: mustprogress uwtable
define dso_local noundef i32 @_ZNK3net21QuicSentPacketManager21GetRetransmissionModeEv(ptr noundef nonnull align 8 dereferenceable(776) %this) local_unnamed_addr #0 align 2 {
entry:
  %handshake_confirmed_ = getelementptr inbounds i8, ptr %this, i64 728
  %0 = load i8, ptr %handshake_confirmed_, align 8
  %1 = and i8 %0, 1
  %tobool.not = icmp eq i8 %1, 0
  br i1 %tobool.not, label %land.lhs.true, label %if.end

land.lhs.true:                                    ; preds = %entry
  %unacked_packets_ = getelementptr inbounds i8, ptr %this, i64 8
  %call = tail call noundef zeroext i1 @_ZNK3net20QuicUnackedPacketMap23HasPendingCryptoPacketsEv(ptr noundef nonnull align 8 dereferenceable(120) %unacked_packets_)
  br i1 %call, label %return, label %if.end

if.end:                                           ; preds = %land.lhs.true, %entry
  %loss_algorithm_ = getelementptr inbounds i8, ptr %this, i64 496
  %2 = load ptr, ptr %loss_algorithm_, align 8
  %vtable = load ptr, ptr %2, align 8
  %vfn = getelementptr inbounds i8, ptr %vtable, i64 32
  %3 = load ptr, ptr %vfn, align 8
  %call2 = tail call i64 %3(ptr noundef nonnull align 8 dereferenceable(8) %2)
  %cmp.i.i.not = icmp eq i64 %call2, 0
  br i1 %cmp.i.i.not, label %if.end10, label %return

if.end10:                                         ; preds = %if.end
  %consecutive_tlp_count_ = getelementptr inbounds i8, ptr %this, i64 576
  %4 = load i64, ptr %consecutive_tlp_count_, align 8
  %max_tail_loss_probes_ = getelementptr inbounds i8, ptr %this, i64 600
  %5 = load i64, ptr %max_tail_loss_probes_, align 8
  %cmp = icmp ult i64 %4, %5
  br i1 %cmp, label %if.then11, label %if.end16

if.then11:                                        ; preds = %if.end10
  %unacked_packets_12 = getelementptr inbounds i8, ptr %this, i64 8
  %call13 = tail call noundef zeroext i1 @_ZNK3net20QuicUnackedPacketMap31HasUnackedRetransmittableFramesEv(ptr noundef nonnull align 8 dereferenceable(120) %unacked_packets_12)
  br i1 %call13, label %return, label %if.end16

if.end16:                                         ; preds = %if.then11, %if.end10
  br label %return

return:                                           ; preds = %if.then11, %if.end, %land.lhs.true, %if.end16
  %retval.0 = phi i32 [ 0, %if.end16 ], [ 2, %land.lhs.true ], [ 3, %if.end ], [ 1, %if.then11 ]
  ret i32 %retval.0
}